target datalayout = "e-m:e-p270:32:32-p271:32:32-p272:64:64-i64:64-i128:128-f80:128-n8:16:32:64-S128"
target triple = "x86_64-pc-linux-gnu"

%struct.config_context = type { ptr }

@.str = private unnamed_addr constant [10 x i8] c"merge.log\00", align 1
@.str.1 = private unnamed_addr constant [14 x i8] c"merge.summary\00", align 1
@merge_log_config = external global i32, align 4
@.str.2 = private unnamed_addr constant [23 x i8] c"%s: negative length %s\00", align 1
@.str.3 = private unnamed_addr constant [17 x i8] c"merge.branchdesc\00", align 1
@use_branch_desc = internal global i32 0, align 4
@.str.4 = private unnamed_addr constant [19 x i8] c"merge.suppressdest\00", align 1
@suppress_dest_pattern_seen = internal global i32 0, align 4
@suppress_dest_patterns = internal global { ptr, i64, i64, i8, [7 x i8], ptr } { ptr null, i64 0, i64 0, i8 1, [7 x i8] zeroinitializer, ptr null }, align 8

; Function Attrs: inlinehint nounwind uwtable
define internal i32 @const_error() #4 {
  ret i32 -1
}

; Function Attrs: nounwind uwtable
define dso_local i32 @fmt_merge_msg_config(ptr noundef %0, ptr noundef %1, ptr noundef %2, ptr noundef %3) #0 {
  %5 = alloca i32, align 4
  %6 = alloca ptr, align 8
  %7 = alloca ptr, align 8
  %8 = alloca ptr, align 8
  %9 = alloca ptr, align 8
  %10 = alloca i32, align 4
  %11 = alloca i32, align 4
  store ptr %0, ptr %6, align 8, !tbaa !4
  store ptr %1, ptr %7, align 8, !tbaa !4
  store ptr %2, ptr %8, align 8, !tbaa !9
  store ptr %3, ptr %9, align 8, !tbaa !11
  %12 = load ptr, ptr %6, align 8, !tbaa !4
  %13 = call i32 @strcmp(ptr noundef %12, ptr noundef @.str) #9
  %14 = icmp ne i32 %13, 0
  br i1 %14, label %15, label %19

15:                                               ; preds = %4
  %16 = load ptr, ptr %6, align 8, !tbaa !4
  %17 = call i32 @strcmp(ptr noundef %16, ptr noundef @.str.1) #9
  %18 = icmp ne i32 %17, 0
  br i1 %18, label %47, label %19

19:                                               ; preds = %15, %4
  call void @llvm.lifetime.start.p0(i64 4, ptr %10) #10
  %20 = load ptr, ptr %6, align 8, !tbaa !4
  %21 = load ptr, ptr %7, align 8, !tbaa !4
  %22 = load ptr, ptr %8, align 8, !tbaa !9
  %23 = getelementptr inbounds nuw %struct.config_context, ptr %22, i32 0, i32 0
  %24 = load ptr, ptr %23, align 8, !tbaa !12
  %25 = call i32 @git_config_bool_or_int(ptr noundef %20, ptr noundef %21, ptr noundef %24, ptr noundef %10)
  store i32 %25, ptr @merge_log_config, align 4, !tbaa !15
  %26 = load i32, ptr %10, align 4, !tbaa !15
  %27 = icmp ne i32 %26, 0
  br i1 %27, label %36, label %28

28:                                               ; preds = %19
  %29 = load i32, ptr @merge_log_config, align 4, !tbaa !15
  %30 = icmp slt i32 %29, 0
  br i1 %30, label %31, label %36

31:                                               ; preds = %28
  %32 = load ptr, ptr %6, align 8, !tbaa !4
  %33 = load ptr, ptr %7, align 8, !tbaa !4
  %34 = call i32 (ptr, ...) @error(ptr noundef @.str.2, ptr noundef %32, ptr noundef %33)
  %35 = call i32 @const_error()
  store i32 %35, ptr %5, align 4
  store i32 1, ptr %11, align 4
  br label %44

36:                                               ; preds = %28, %19
  %37 = load i32, ptr %10, align 4, !tbaa !15
  %38 = icmp ne i32 %37, 0
  br i1 %38, label %39, label %43

39:                                               ; preds = %36
  %40 = load i32, ptr @merge_log_config, align 4, !tbaa !15
  %41 = icmp ne i32 %40, 0
  br i1 %41, label %42, label %43

42:                                               ; preds = %39
  store i32 20, ptr @merge_log_config, align 4, !tbaa !15
  br label %43

43:                                               ; preds = %42, %39, %36
  store i32 0, ptr %11, align 4
  br label %44

44:                                               ; preds = %43, %31
  call void @llvm.lifetime.end.p0(i64 4, ptr %10) #10
  %45 = load i32, ptr %11, align 4
  switch i32 %45, label %86 [
    i32 0, label %46
    i32 1, label %84
  ]

46:                                               ; preds = %44
  br label %83

47:                                               ; preds = %15
  %48 = load ptr, ptr %6, align 8, !tbaa !4
  %49 = call i32 @strcmp(ptr noundef %48, ptr noundef @.str.3) #9
  %50 = icmp ne i32 %49, 0
  br i1 %50, label %55, label %51

51:                                               ; preds = %47
  %52 = load ptr, ptr %6, align 8, !tbaa !4
  %53 = load ptr, ptr %7, align 8, !tbaa !4
  %54 = call i32 @git_config_bool(ptr noundef %52, ptr noundef %53)
  store i32 %54, ptr @use_branch_desc, align 4, !tbaa !15
  br label %82

55:                                               ; preds = %47
  %56 = load ptr, ptr %6, align 8, !tbaa !4
  %57 = call i32 @strcmp(ptr noundef %56, ptr noundef @.str.4) #9
  %58 = icmp ne i32 %57, 0
  br i1 %58, label %75, label %59

59:                                               ; preds = %55
  %60 = load ptr, ptr %7, align 8, !tbaa !4
  %61 = icmp ne ptr %60, null
  br i1 %61, label %66, label %62

62:                                               ; preds = %59
  %63 = load ptr, ptr %6, align 8, !tbaa !4
  %64 = call i32 @config_error_nonbool(ptr noundef %63)
  %65 = call i32 @const_error()
  store i32 %65, ptr %5, align 4
  br label %84

66:                                               ; preds = %59
  %67 = load ptr, ptr %7, align 8, !tbaa !4
  %68 = load i8, ptr %67, align 1, !tbaa !17
  %69 = icmp ne i8 %68, 0
  br i1 %69, label %71, label %70

70:                                               ; preds = %66
  call void @string_list_clear(ptr noundef @suppress_dest_patterns, i32 noundef 0)
  br label %74

71:                                               ; preds = %66
  %72 = load ptr, ptr %7, align 8, !tbaa !4
  %73 = call ptr @string_list_append(ptr noundef @suppress_dest_patterns, ptr noundef %72)
  br label %74

74:                                               ; preds = %71, %70
  store i32 1, ptr @suppress_dest_pattern_seen, align 4, !tbaa !15
  br label %81

75:                                               ; preds = %55
  %76 = load ptr, ptr %6, align 8, !tbaa !4
  %77 = load ptr, ptr %7, align 8, !tbaa !4
  %78 = load ptr, ptr %8, align 8, !tbaa !9
  %79 = load ptr, ptr %9, align 8, !tbaa !11
  %80 = call i32 @git_default_config(ptr noundef %76, ptr noundef %77, ptr noundef %78, ptr noundef %79)
  store i32 %80, ptr %5, align 4
  br label %84

81:                                               ; preds = %74
  br label %82

82:                                               ; preds = %81, %51
  br label %83

83:                                               ; preds = %82, %46
  store i32 0, ptr %5, align 4
  br label %84

84:                                               ; preds = %83, %75, %62, %44
  %85 = load i32, ptr %5, align 4
  ret i32 %85

86:                                               ; preds = %44
  unreachable
}