; Function Attrs: nounwind uwtable
define dso_local i32 @fmt_merge_msg_config(ptr noundef %0, ptr noundef %1, ptr noundef %2, ptr noundef %3) local_unnamed_addr #0 {
  %5 = alloca i32, align 4
  %6 = tail call i32 @strcmp(ptr noundef nonnull dereferenceable(1) %0, ptr noundef nonnull dereferenceable(10) @.str) #12
  %.not = icmp eq i32 %6, 0
  br i1 %.not, label %9, label %7

7:                                                ; preds = %4
  %8 = tail call i32 @strcmp(ptr noundef nonnull dereferenceable(1) %0, ptr noundef nonnull dereferenceable(14) @.str.1) #12
  %.not25 = icmp eq i32 %8, 0
  br i1 %.not25, label %9, label %21

9:                                                ; preds = %7, %4
  call void @llvm.lifetime.start.p0(i64 4, ptr nonnull %5) #13
  %10 = load ptr, ptr %2, align 8, !tbaa !4
  %11 = call i32 @git_config_bool_or_int(ptr noundef nonnull %0, ptr noundef %1, ptr noundef %10, ptr noundef nonnull %5) #13
  store i32 %11, ptr @merge_log_config, align 4, !tbaa !10
  %12 = load i32, ptr %5, align 4, !tbaa !10
  %13 = icmp eq i32 %12, 0
  %14 = icmp slt i32 %11, 0
  %or.cond = select i1 %13, i1 %14, i1 false
  br i1 %or.cond, label %19, label %15

15:                                               ; preds = %9
  %16 = icmp ne i32 %12, 0
  %17 = icmp ne i32 %11, 0
  %or.cond3 = select i1 %16, i1 %17, i1 false
  br i1 %or.cond3, label %18, label %.thread

18:                                               ; preds = %15
  store i32 20, ptr @merge_log_config, align 4, !tbaa !10
  br label %.thread

.thread:                                          ; preds = %15, %18
  call void @llvm.lifetime.end.p0(i64 4, ptr nonnull %5) #13
  br label %38

19:                                               ; preds = %9
  %20 = call i32 (ptr, ...) @error(ptr noundef nonnull @.str.2, ptr noundef nonnull %0, ptr noundef %1) #13
  call void @llvm.lifetime.end.p0(i64 4, ptr nonnull %5) #13
  br label %38

21:                                               ; preds = %7
  %22 = tail call i32 @strcmp(ptr noundef nonnull dereferenceable(1) %0, ptr noundef nonnull dereferenceable(17) @.str.3) #12
  %.not26 = icmp eq i32 %22, 0
  br i1 %.not26, label %23, label %25

23:                                               ; preds = %21
  %24 = tail call i32 @git_config_bool(ptr noundef nonnull %0, ptr noundef %1) #13
  store i32 %24, ptr @use_branch_desc, align 4, !tbaa !10
  br label %38

25:                                               ; preds = %21
  %26 = tail call i32 @strcmp(ptr noundef nonnull dereferenceable(1) %0, ptr noundef nonnull dereferenceable(19) @.str.4) #12
  %.not27 = icmp eq i32 %26, 0
  br i1 %.not27, label %27, label %36

27:                                               ; preds = %25
  %.not28 = icmp eq ptr %1, null
  br i1 %.not28, label %28, label %30

28:                                               ; preds = %27
  %29 = tail call i32 @config_error_nonbool(ptr noundef nonnull %0) #13
  br label %38

30:                                               ; preds = %27
  %31 = load i8, ptr %1, align 1, !tbaa !12
  %.not29 = icmp eq i8 %31, 0
  br i1 %.not29, label %32, label %33

32:                                               ; preds = %30
  tail call void @string_list_clear(ptr noundef nonnull @suppress_dest_patterns, i32 noundef 0) #13
  br label %35

33:                                               ; preds = %30
  %34 = tail call ptr @string_list_append(ptr noundef nonnull @suppress_dest_patterns, ptr noundef nonnull %1) #13
  br label %35

35:                                               ; preds = %33, %32
  store i1 true, ptr @suppress_dest_pattern_seen, align 4
  br label %38

36:                                               ; preds = %25
  %37 = tail call i32 @git_default_config(ptr noundef nonnull %0, ptr noundef %1, ptr noundef %2, ptr noundef %3) #13
  br label %38

38:                                               ; preds = %35, %23, %.thread, %19, %36, %28
  %.1 = phi i32 [ %37, %36 ], [ -1, %28 ], [ -1, %19 ], [ 0, %.thread ], [ 0, %23 ], [ 0, %35 ]
  ret i32 %.1
}